#include <math.h>
#include <stdio.h>
#include <stdlib.h>
#include <string.h>

int main(){
    int sum=0;
    int n;
    scanf("%d",&n);
    for(int num=1;num<=n;num++)
    {
                       
            if(num%7==0||(num-70<=9&&num-70>0)||num%10==7)
            {
                continue;
            }
            sum+=num*num;
            
    } 
    printf("%d",sum);
    getchar();getchar();
    return 0;
}