; ModuleID = 'source-C-CXX/29/2693.c'
source_filename = "source-C-CXX/29/2693.c"
target datalayout = "e-m:e-p270:32:32-p271:32:32-p272:64:64-i64:64-f80:128-n8:16:32:64-S128"
target triple = "x86_64-pc-linux-gnu"

%struct._IO_FILE = type { i32, i8*, i8*, i8*, i8*, i8*, i8*, i8*, i8*, i8*, i8*, i8*, %struct._IO_marker*, %struct._IO_FILE*, i32, i32, i64, i16, i8, [1 x i8], i8*, i64, %struct._IO_codecvt*, %struct._IO_wide_data*, %struct._IO_FILE*, i8*, i64, i32, [20 x i8] }
%struct._IO_marker = type opaque
%struct._IO_codecvt = type opaque
%struct._IO_wide_data = type opaque

@.str = private unnamed_addr constant [3 x i8] c"%d\00", align 1
@stdin = external local_unnamed_addr global %struct._IO_FILE*, align 8

; Function Attrs: nofree nounwind sspstrong uwtable
define dso_local i32 @main() local_unnamed_addr #0 {
  %1 = alloca i32, align 4
  %2 = bitcast i32* %1 to i8*
  call void @llvm.lifetime.start.p0i8(i64 4, i8* nonnull %2) #4
  %3 = call i32 (i8*, ...) @__isoc99_scanf(i8* getelementptr inbounds ([3 x i8], [3 x i8]* @.str, i64 0, i64 0), i32* nonnull %1)
  %4 = load i32, i32* %1, align 4, !tbaa !5
  %5 = icmp slt i32 %4, 1
  br i1 %5, label %57, label %6

6:                                                ; preds = %0
  %7 = icmp ult i32 %4, 8
  br i1 %7, label %54, label %8

8:                                                ; preds = %6
  %9 = and i32 %4, -8
  %10 = or i32 %9, 1
  br label %11

11:                                               ; preds = %11, %8
  %12 = phi i32 [ 0, %8 ], [ %47, %11 ]
  %13 = phi <4 x i32> [ <i32 1, i32 2, i32 3, i32 4>, %8 ], [ %48, %11 ]
  %14 = phi <4 x i32> [ zeroinitializer, %8 ], [ %44, %11 ]
  %15 = phi <4 x i32> [ zeroinitializer, %8 ], [ %46, %11 ]
  %16 = add <4 x i32> %13, <i32 4, i32 4, i32 4, i32 4>
  %17 = urem <4 x i32> %13, <i32 7, i32 7, i32 7, i32 7>
  %18 = urem <4 x i32> %16, <i32 7, i32 7, i32 7, i32 7>
  %19 = icmp ne <4 x i32> %17, zeroinitializer
  %20 = icmp ne <4 x i32> %18, zeroinitializer
  %21 = add nsw <4 x i32> %13, <i32 -71, i32 -71, i32 -71, i32 -71>
  %22 = add <4 x i32> %13, <i32 -67, i32 -67, i32 -67, i32 -67>
  %23 = icmp ult <4 x i32> %21, <i32 9, i32 9, i32 9, i32 9>
  %24 = icmp ult <4 x i32> %22, <i32 9, i32 9, i32 9, i32 9>
  %25 = urem <4 x i32> %13, <i32 10, i32 10, i32 10, i32 10>
  %26 = urem <4 x i32> %16, <i32 10, i32 10, i32 10, i32 10>
  %27 = icmp eq <4 x i32> %25, <i32 7, i32 7, i32 7, i32 7>
  %28 = icmp eq <4 x i32> %26, <i32 7, i32 7, i32 7, i32 7>
  %29 = or <4 x i1> %23, %27
  %30 = or <4 x i1> %24, %28
  %31 = mul nsw <4 x i32> %13, %13
  %32 = mul nsw <4 x i32> %16, %16
  %33 = or <4 x i1> %23, %27
  %34 = xor <4 x i1> %33, <i1 true, i1 true, i1 true, i1 true>
  %35 = or <4 x i1> %24, %28
  %36 = xor <4 x i1> %35, <i1 true, i1 true, i1 true, i1 true>
  %37 = select <4 x i1> %19, <4 x i1> %34, <4 x i1> zeroinitializer
  %38 = select <4 x i1> %20, <4 x i1> %36, <4 x i1> zeroinitializer
  %39 = select <4 x i1> %19, <4 x i1> %29, <4 x i1> zeroinitializer
  %40 = select <4 x i1> %20, <4 x i1> %30, <4 x i1> zeroinitializer
  %41 = select <4 x i1> %37, <4 x i32> %31, <4 x i32> zeroinitializer
  %42 = select <4 x i1> %38, <4 x i32> %32, <4 x i32> zeroinitializer
  %43 = select <4 x i1> %39, <4 x i32> zeroinitializer, <4 x i32> %41
  %44 = add <4 x i32> %14, %43
  %45 = select <4 x i1> %40, <4 x i32> zeroinitializer, <4 x i32> %42
  %46 = add <4 x i32> %15, %45
  %47 = add nuw i32 %12, 8
  %48 = add <4 x i32> %13, <i32 8, i32 8, i32 8, i32 8>
  %49 = icmp eq i32 %47, %9
  br i1 %49, label %50, label %11, !llvm.loop !9

50:                                               ; preds = %11
  %51 = add <4 x i32> %46, %44
  %52 = call i32 @llvm.vector.reduce.add.v4i32(<4 x i32> %51)
  %53 = icmp eq i32 %4, %9
  br i1 %53, label %57, label %54

54:                                               ; preds = %6, %50
  %55 = phi i32 [ 1, %6 ], [ %10, %50 ]
  %56 = phi i32 [ 0, %6 ], [ %52, %50 ]
  br label %64

57:                                               ; preds = %78, %50, %0
  %58 = phi i32 [ 0, %0 ], [ %52, %50 ], [ %79, %78 ]
  %59 = call i32 (i8*, ...) @printf(i8* nonnull dereferenceable(1) getelementptr inbounds ([3 x i8], [3 x i8]* @.str, i64 0, i64 0), i32 %58)
  %60 = load %struct._IO_FILE*, %struct._IO_FILE** @stdin, align 8, !tbaa !12
  %61 = call i32 @getc(%struct._IO_FILE* %60) #4
  %62 = load %struct._IO_FILE*, %struct._IO_FILE** @stdin, align 8, !tbaa !12
  %63 = call i32 @getc(%struct._IO_FILE* %62) #4
  call void @llvm.lifetime.end.p0i8(i64 4, i8* nonnull %2) #4
  ret i32 0

64:                                               ; preds = %54, %78
  %65 = phi i32 [ %80, %78 ], [ %55, %54 ]
  %66 = phi i32 [ %79, %78 ], [ %56, %54 ]
  %67 = urem i32 %65, 7
  %68 = icmp eq i32 %67, 0
  br i1 %68, label %78, label %69

69:                                               ; preds = %64
  %70 = add nsw i32 %65, -71
  %71 = icmp ult i32 %70, 9
  %72 = urem i32 %65, 10
  %73 = icmp eq i32 %72, 7
  %74 = or i1 %71, %73
  br i1 %74, label %78, label %75

75:                                               ; preds = %69
  %76 = mul nsw i32 %65, %65
  %77 = add nsw i32 %76, %66
  br label %78

78:                                               ; preds = %69, %64, %75
  %79 = phi i32 [ %66, %64 ], [ %77, %75 ], [ %66, %69 ]
  %80 = add nuw i32 %65, 1
  %81 = icmp eq i32 %65, %4
  br i1 %81, label %57, label %64, !llvm.loop !14
}

; Function Attrs: argmemonly mustprogress nofree nosync nounwind willreturn
declare void @llvm.lifetime.start.p0i8(i64 immarg, i8* nocapture) #1

; Function Attrs: nofree nounwind
declare noundef i32 @__isoc99_scanf(i8* nocapture noundef readonly, ...) local_unnamed_addr #2

; Function Attrs: argmemonly mustprogress nofree nosync nounwind willreturn
declare void @llvm.lifetime.end.p0i8(i64 immarg, i8* nocapture) #1

; Function Attrs: nofree nounwind
declare noundef i32 @printf(i8* nocapture noundef readonly, ...) local_unnamed_addr #2

; Function Attrs: nofree nounwind
declare noundef i32 @getc(%struct._IO_FILE* nocapture noundef) local_unnamed_addr #2

; Function Attrs: nofree nosync nounwind readnone willreturn
declare i32 @llvm.vector.reduce.add.v4i32(<4 x i32>) #3


!llvm.module.flags = !{!0, !1, !2, !3}
!llvm.ident = !{!4}

!0 = !{i32 1, !"wchar_size", i32 4}
!1 = !{i32 7, !"PIC Level", i32 2}
!2 = !{i32 7, !"PIE Level", i32 2}
!3 = !{i32 7, !"uwtable", i32 1}
!4 = !{!"clang version 13.0.0"}
!5 = !{!6, !6, i64 0}
!6 = !{!"int", !7, i64 0}
!7 = !{!"omnipotent char", !8, i64 0}
!8 = !{!"Simple C/C++ TBAA"}
!9 = distinct !{!9, !10, !11}
!10 = !{!"llvm.loop.mustprogress"}
!11 = !{!"llvm.loop.isvectorized", i32 1}
!12 = !{!13, !13, i64 0}
!13 = !{!"any pointer", !7, i64 0}
!14 = distinct !{!14, !10, !15, !11}
!15 = !{!"llvm.loop.unroll.runtime.disable"}
